target datalayout = "e-m:e-p270:32:32-p271:32:32-p272:64:64-i64:64-i128:128-f80:128-n8:16:32:64-S128"
target triple = "x86_64-pc-linux-gnu"

%struct.self_test_arg = type { i32 }
%struct.ossl_param_st = type { ptr, i32, ptr, i64, i64 }

@provider_name = internal global ptr null, align 8
@libctx = internal global ptr null, align 8
@self_test_args = internal global %struct.self_test_arg zeroinitializer, align 4
@.str.33 = private unnamed_addr constant [39 x i8] c"../openssl/test/provider_status_test.c\00", align 1
@.str.34 = private unnamed_addr constant [49 x i8] c"prov = OSSL_PROVIDER_load(libctx, provider_name)\00", align 1
@.str.35 = private unnamed_addr constant [7 x i8] c"status\00", align 1
@.str.36 = private unnamed_addr constant [39 x i8] c"OSSL_PROVIDER_get_params(prov, params)\00", align 1
@.str.37 = private unnamed_addr constant [12 x i8] c"status == 1\00", align 1
@.str.38 = private unnamed_addr constant [45 x i8] c"fetch = EVP_MD_fetch(libctx, \22SHA256\22, NULL)\00", align 1
@.str.39 = private unnamed_addr constant [7 x i8] c"SHA256\00", align 1
@.str.40 = private unnamed_addr constant [57 x i8] c"(pctx = EVP_PKEY_CTX_new_from_name(libctx, \22RSA\22, NULL))\00", align 1
@.str.41 = private unnamed_addr constant [4 x i8] c"RSA\00", align 1
@.str.42 = private unnamed_addr constant [27 x i8] c"EVP_PKEY_keygen_init(pctx)\00", align 1
@.str.43 = private unnamed_addr constant [2 x i8] c"0\00", align 1
@.str.44 = private unnamed_addr constant [45 x i8] c"EVP_PKEY_CTX_set_rsa_keygen_bits(pctx, 2048)\00", align 1
@.str.45 = private unnamed_addr constant [29 x i8] c"EVP_PKEY_keygen(pctx, &pkey)\00", align 1
@.str.46 = private unnamed_addr constant [30 x i8] c"OSSL_PROVIDER_self_test(prov)\00", align 1

; Function Attrs: nounwind uwtable
define internal i32 @test_provider_status() #0 {
  %1 = alloca i32, align 4
  %2 = alloca i32, align 4
  %3 = alloca ptr, align 8
  %4 = alloca [2 x %struct.ossl_param_st], align 16
  %5 = alloca ptr, align 8
  %6 = alloca ptr, align 8
  %7 = alloca ptr, align 8
  %8 = alloca %struct.ossl_param_st, align 8
  %9 = alloca %struct.ossl_param_st, align 8
  call void @llvm.lifetime.start.p0(i64 4, ptr %1) #5
  store i32 0, ptr %1, align 4, !tbaa !9
  call void @llvm.lifetime.start.p0(i64 4, ptr %2) #5
  store i32 0, ptr %2, align 4, !tbaa !9
  call void @llvm.lifetime.start.p0(i64 8, ptr %3) #5
  store ptr null, ptr %3, align 8, !tbaa !20
  call void @llvm.lifetime.start.p0(i64 80, ptr %4) #5
  call void @llvm.lifetime.start.p0(i64 8, ptr %5) #5
  store ptr null, ptr %5, align 8, !tbaa !22
  call void @llvm.lifetime.start.p0(i64 8, ptr %6) #5
  store ptr null, ptr %6, align 8, !tbaa !24
  call void @llvm.lifetime.start.p0(i64 8, ptr %7) #5
  store ptr null, ptr %7, align 8, !tbaa !26
  %10 = load ptr, ptr @libctx, align 8, !tbaa !13
  %11 = load ptr, ptr @provider_name, align 8, !tbaa !4
  %12 = call ptr @OSSL_PROVIDER_load(ptr noundef %10, ptr noundef %11)
  store ptr %12, ptr %3, align 8, !tbaa !20
  %13 = call i32 @test_ptr(ptr noundef @.str.33, i32 noundef 154, ptr noundef @.str.34, ptr noundef %12)
  %14 = icmp ne i32 %13, 0
  br i1 %14, label %16, label %15

15:                                               ; preds = %0
  br label %108

16:                                               ; preds = %0
  %17 = load ptr, ptr %3, align 8, !tbaa !20
  %18 = call i32 @get_provider_params(ptr noundef %17)
  %19 = icmp ne i32 %18, 0
  br i1 %19, label %21, label %20

20:                                               ; preds = %16
  br label %108

21:                                               ; preds = %16
  %22 = getelementptr inbounds [2 x %struct.ossl_param_st], ptr %4, i64 0, i64 0
  call void @llvm.lifetime.start.p0(i64 40, ptr %8) #5
  call void @OSSL_PARAM_construct_uint(ptr dead_on_unwind writable sret(%struct.ossl_param_st) align 8 %8, ptr noundef @.str.35, ptr noundef %2)
  call void @llvm.memcpy.p0.p0.i64(ptr align 16 %22, ptr align 8 %8, i64 40, i1 false), !tbaa.struct !28
  call void @llvm.lifetime.end.p0(i64 40, ptr %8) #5
  %23 = getelementptr inbounds [2 x %struct.ossl_param_st], ptr %4, i64 0, i64 1
  call void @llvm.lifetime.start.p0(i64 40, ptr %9) #5
  call void @OSSL_PARAM_construct_end(ptr dead_on_unwind writable sret(%struct.ossl_param_st) align 8 %9)
  call void @llvm.memcpy.p0.p0.i64(ptr align 8 %23, ptr align 8 %9, i64 40, i1 false), !tbaa.struct !28
  call void @llvm.lifetime.end.p0(i64 40, ptr %9) #5
  %24 = load ptr, ptr %3, align 8, !tbaa !20
  %25 = getelementptr inbounds [2 x %struct.ossl_param_st], ptr %4, i64 0, i64 0
  %26 = call i32 @OSSL_PROVIDER_get_params(ptr noundef %24, ptr noundef %25)
  %27 = icmp ne i32 %26, 0
  %28 = zext i1 %27 to i32
  %29 = call i32 @test_true(ptr noundef @.str.33, i32 noundef 162, ptr noundef @.str.36, i32 noundef %28)
  %30 = icmp ne i32 %29, 0
  br i1 %30, label %31, label %39

31:                                               ; preds = %21
  %32 = load i32, ptr %2, align 4, !tbaa !9
  %33 = icmp eq i32 %32, 1
  %34 = zext i1 %33 to i32
  %35 = icmp ne i32 %34, 0
  %36 = zext i1 %35 to i32
  %37 = call i32 @test_true(ptr noundef @.str.33, i32 noundef 163, ptr noundef @.str.37, i32 noundef %36)
  %38 = icmp ne i32 %37, 0
  br i1 %38, label %40, label %39

39:                                               ; preds = %31, %21
  br label %108

40:                                               ; preds = %31
  %41 = load ptr, ptr @libctx, align 8, !tbaa !13
  %42 = call ptr @EVP_MD_fetch(ptr noundef %41, ptr noundef @.str.39, ptr noundef null)
  store ptr %42, ptr %5, align 8, !tbaa !22
  %43 = call i32 @test_ptr(ptr noundef @.str.33, i32 noundef 165, ptr noundef @.str.38, ptr noundef %42)
  %44 = icmp ne i32 %43, 0
  br i1 %44, label %46, label %45

45:                                               ; preds = %40
  br label %108

46:                                               ; preds = %40
  %47 = load ptr, ptr %5, align 8, !tbaa !22
  call void @EVP_MD_free(ptr noundef %47)
  store ptr null, ptr %5, align 8, !tbaa !22
  %48 = load ptr, ptr @libctx, align 8, !tbaa !13
  %49 = call ptr @EVP_PKEY_CTX_new_from_name(ptr noundef %48, ptr noundef @.str.41, ptr noundef null)
  store ptr %49, ptr %6, align 8, !tbaa !24
  %50 = call i32 @test_ptr(ptr noundef @.str.33, i32 noundef 170, ptr noundef @.str.40, ptr noundef %49)
  %51 = icmp ne i32 %50, 0
  br i1 %51, label %52, label %67

52:                                               ; preds = %46
  %53 = load ptr, ptr %6, align 8, !tbaa !24
  %54 = call i32 @EVP_PKEY_keygen_init(ptr noundef %53)
  %55 = call i32 @test_int_gt(ptr noundef @.str.33, i32 noundef 171, ptr noundef @.str.42, ptr noundef @.str.43, i32 noundef %54, i32 noundef 0)
  %56 = icmp ne i32 %55, 0
  br i1 %56, label %57, label %67

57:                                               ; preds = %52
  %58 = load ptr, ptr %6, align 8, !tbaa !24
  %59 = call i32 @EVP_PKEY_CTX_set_rsa_keygen_bits(ptr noundef %58, i32 noundef 2048)
  %60 = call i32 @test_int_gt(ptr noundef @.str.33, i32 noundef 172, ptr noundef @.str.44, ptr noundef @.str.43, i32 noundef %59, i32 noundef 0)
  %61 = icmp ne i32 %60, 0
  br i1 %61, label %62, label %67

62:                                               ; preds = %57
  %63 = load ptr, ptr %6, align 8, !tbaa !24
  %64 = call i32 @EVP_PKEY_keygen(ptr noundef %63, ptr noundef %7)
  %65 = call i32 @test_int_gt(ptr noundef @.str.33, i32 noundef 173, ptr noundef @.str.45, ptr noundef @.str.43, i32 noundef %64, i32 noundef 0)
  %66 = icmp ne i32 %65, 0
  br i1 %66, label %68, label %67

67:                                               ; preds = %62, %57, %52, %46
  br label %108

68:                                               ; preds = %62
  %69 = load ptr, ptr %7, align 8, !tbaa !26
  call void @EVP_PKEY_free(ptr noundef %69)
  %70 = load ptr, ptr %6, align 8, !tbaa !24
  call void @EVP_PKEY_CTX_free(ptr noundef %70)
  store ptr null, ptr %7, align 8, !tbaa !26
  store ptr null, ptr %6, align 8, !tbaa !24
  store i32 0, ptr @self_test_args, align 4, !tbaa !15
  %71 = load ptr, ptr @libctx, align 8, !tbaa !13
  call void @OSSL_SELF_TEST_set_callback(ptr noundef %71, ptr noundef @self_test_on_demand, ptr noundef @self_test_args)
  %72 = load ptr, ptr %3, align 8, !tbaa !20
  %73 = call i32 @OSSL_PROVIDER_self_test(ptr noundef %72)
  %74 = icmp ne i32 %73, 0
  %75 = zext i1 %74 to i32
  %76 = call i32 @test_true(ptr noundef @.str.33, i32 noundef 183, ptr noundef @.str.46, i32 noundef %75)
  %77 = icmp ne i32 %76, 0
  br i1 %77, label %79, label %78

78:                                               ; preds = %68
  br label %108

79:                                               ; preds = %68
  store i32 0, ptr @self_test_args, align 4, !tbaa !15
  %80 = load ptr, ptr @libctx, align 8, !tbaa !13
  call void @OSSL_SELF_TEST_set_callback(ptr noundef %80, ptr noundef @self_test_on_demand_fail, ptr noundef @self_test_args)
  %81 = load ptr, ptr %3, align 8, !tbaa !20
  %82 = call i32 @OSSL_PROVIDER_self_test(ptr noundef %81)
  %83 = icmp ne i32 %82, 0
  %84 = zext i1 %83 to i32
  %85 = call i32 @test_false(ptr noundef @.str.33, i32 noundef 189, ptr noundef @.str.46, i32 noundef %84)
  %86 = icmp ne i32 %85, 0
  br i1 %86, label %88, label %87

87:                                               ; preds = %79
  br label %108

88:                                               ; preds = %79
  %89 = load ptr, ptr %3, align 8, !tbaa !20
  %90 = getelementptr inbounds [2 x %struct.ossl_param_st], ptr %4, i64 0, i64 0
  %91 = call i32 @OSSL_PROVIDER_get_params(ptr noundef %89, ptr noundef %90)
  %92 = icmp ne i32 %91, 0
  %93 = zext i1 %92 to i32
  %94 = call i32 @test_true(ptr noundef @.str.33, i32 noundef 191, ptr noundef @.str.36, i32 noundef %93)
  %95 = icmp ne i32 %94, 0
  br i1 %95, label %96, label %100

96:                                               ; preds = %88
  %97 = load i32, ptr %2, align 4, !tbaa !9
  %98 = call i32 @test_uint_eq(ptr noundef @.str.33, i32 noundef 192, ptr noundef @.str.35, ptr noundef @.str.43, i32 noundef %97, i32 noundef 0)
  %99 = icmp ne i32 %98, 0
  br i1 %99, label %101, label %100

100:                                              ; preds = %96, %88
  br label %108

101:                                              ; preds = %96
  %102 = load ptr, ptr @libctx, align 8, !tbaa !13
  %103 = call ptr @EVP_MD_fetch(ptr noundef %102, ptr noundef @.str.39, ptr noundef null)
  store ptr %103, ptr %5, align 8, !tbaa !22
  %104 = call i32 @test_ptr_null(ptr noundef @.str.33, i32 noundef 194, ptr noundef @.str.38, ptr noundef %103)
  %105 = icmp ne i32 %104, 0
  br i1 %105, label %107, label %106

106:                                              ; preds = %101
  br label %108

107:                                              ; preds = %101
  store i32 1, ptr %1, align 4, !tbaa !9
  br label %108

108:                                              ; preds = %107, %106, %100, %87, %78, %67, %45, %39, %20, %15
  %109 = load ptr, ptr %5, align 8, !tbaa !22
  call void @EVP_MD_free(ptr noundef %109)
  %110 = load ptr, ptr %3, align 8, !tbaa !20
  %111 = call i32 @OSSL_PROVIDER_unload(ptr noundef %110)
  %112 = load i32, ptr %1, align 4, !tbaa !9
  call void @llvm.lifetime.end.p0(i64 8, ptr %7) #5
  call void @llvm.lifetime.end.p0(i64 8, ptr %6) #5
  call void @llvm.lifetime.end.p0(i64 8, ptr %5) #5
  call void @llvm.lifetime.end.p0(i64 80, ptr %4) #5
  call void @llvm.lifetime.end.p0(i64 8, ptr %3) #5
  call void @llvm.lifetime.end.p0(i64 4, ptr %2) #5
  call void @llvm.lifetime.end.p0(i64 4, ptr %1) #5
  ret i32 %112
}