; Function Attrs: nounwind uwtable
define internal range(i32 0, 2) i32 @test_provider_status() #1 {
  %1 = alloca i32, align 4
  %2 = alloca [2 x %struct.ossl_param_st], align 16
  %3 = alloca ptr, align 8
  %4 = alloca %struct.ossl_param_st, align 8
  call void @llvm.lifetime.start.p0(i64 4, ptr nonnull %1) #6
  store i32 0, ptr %1, align 4, !tbaa !16
  call void @llvm.lifetime.start.p0(i64 80, ptr nonnull %2) #6
  call void @llvm.lifetime.start.p0(i64 8, ptr nonnull %3) #6
  store ptr null, ptr %3, align 8, !tbaa !17
  %5 = load ptr, ptr @libctx, align 8, !tbaa !11
  %6 = load ptr, ptr @provider_name, align 8, !tbaa !6
  %7 = tail call ptr @OSSL_PROVIDER_load(ptr noundef %5, ptr noundef %6) #6
  %8 = tail call i32 @test_ptr(ptr noundef nonnull @.str.33, i32 noundef 154, ptr noundef nonnull @.str.34, ptr noundef %7) #6
  %.not = icmp eq i32 %8, 0
  br i1 %.not, label %64, label %9

9:                                                ; preds = %0
  %10 = tail call fastcc i32 @get_provider_params(ptr noundef %7)
  %.not13 = icmp eq i32 %10, 0
  br i1 %.not13, label %64, label %11

11:                                               ; preds = %9
  call void @OSSL_PARAM_construct_uint(ptr dead_on_unwind nonnull writable sret(%struct.ossl_param_st) align 8 %2, ptr noundef nonnull @.str.35, ptr noundef nonnull %1) #6
  %12 = getelementptr inbounds nuw i8, ptr %2, i64 40
  call void @llvm.lifetime.start.p0(i64 40, ptr nonnull %4) #6
  call void @OSSL_PARAM_construct_end(ptr dead_on_unwind nonnull writable sret(%struct.ossl_param_st) align 8 %4) #6
  call void @llvm.memcpy.p0.p0.i64(ptr noundef nonnull align 8 dereferenceable(40) %12, ptr noundef nonnull align 8 dereferenceable(40) %4, i64 40, i1 false), !tbaa.struct !19
  call void @llvm.lifetime.end.p0(i64 40, ptr nonnull %4) #6
  %13 = call i32 @OSSL_PROVIDER_get_params(ptr noundef %7, ptr noundef nonnull %2) #6
  %14 = icmp ne i32 %13, 0
  %15 = zext i1 %14 to i32
  %16 = call i32 @test_true(ptr noundef nonnull @.str.33, i32 noundef 162, ptr noundef nonnull @.str.36, i32 noundef %15) #6
  %.not14 = icmp eq i32 %16, 0
  br i1 %.not14, label %64, label %17

17:                                               ; preds = %11
  %18 = load i32, ptr %1, align 4, !tbaa !16
  %19 = icmp eq i32 %18, 1
  %20 = zext i1 %19 to i32
  %21 = call i32 @test_true(ptr noundef nonnull @.str.33, i32 noundef 163, ptr noundef nonnull @.str.37, i32 noundef %20) #6
  %.not15 = icmp eq i32 %21, 0
  br i1 %.not15, label %64, label %22

22:                                               ; preds = %17
  %23 = load ptr, ptr @libctx, align 8, !tbaa !11
  %24 = call ptr @EVP_MD_fetch(ptr noundef %23, ptr noundef nonnull @.str.39, ptr noundef null) #6
  %25 = call i32 @test_ptr(ptr noundef nonnull @.str.33, i32 noundef 165, ptr noundef nonnull @.str.38, ptr noundef %24) #6
  %.not16 = icmp eq i32 %25, 0
  br i1 %.not16, label %64, label %26

26:                                               ; preds = %22
  call void @EVP_MD_free(ptr noundef %24) #6
  %27 = load ptr, ptr @libctx, align 8, !tbaa !11
  %28 = call ptr @EVP_PKEY_CTX_new_from_name(ptr noundef %27, ptr noundef nonnull @.str.41, ptr noundef null) #6
  %29 = call i32 @test_ptr(ptr noundef nonnull @.str.33, i32 noundef 170, ptr noundef nonnull @.str.40, ptr noundef %28) #6
  %.not17 = icmp eq i32 %29, 0
  br i1 %.not17, label %64, label %30

30:                                               ; preds = %26
  %31 = call i32 @EVP_PKEY_keygen_init(ptr noundef %28) #6
  %32 = call i32 @test_int_gt(ptr noundef nonnull @.str.33, i32 noundef 171, ptr noundef nonnull @.str.42, ptr noundef nonnull @.str.43, i32 noundef %31, i32 noundef 0) #6
  %.not18 = icmp eq i32 %32, 0
  br i1 %.not18, label %64, label %33

33:                                               ; preds = %30
  %34 = call i32 @EVP_PKEY_CTX_set_rsa_keygen_bits(ptr noundef %28, i32 noundef 2048) #6
  %35 = call i32 @test_int_gt(ptr noundef nonnull @.str.33, i32 noundef 172, ptr noundef nonnull @.str.44, ptr noundef nonnull @.str.43, i32 noundef %34, i32 noundef 0) #6
  %.not19 = icmp eq i32 %35, 0
  br i1 %.not19, label %64, label %36

36:                                               ; preds = %33
  %37 = call i32 @EVP_PKEY_keygen(ptr noundef %28, ptr noundef nonnull %3) #6
  %38 = call i32 @test_int_gt(ptr noundef nonnull @.str.33, i32 noundef 173, ptr noundef nonnull @.str.45, ptr noundef nonnull @.str.43, i32 noundef %37, i32 noundef 0) #6
  %.not20 = icmp eq i32 %38, 0
  br i1 %.not20, label %64, label %39

39:                                               ; preds = %36
  %40 = load ptr, ptr %3, align 8, !tbaa !17
  call void @EVP_PKEY_free(ptr noundef %40) #6
  call void @EVP_PKEY_CTX_free(ptr noundef %28) #6
  store ptr null, ptr %3, align 8, !tbaa !17
  store i32 0, ptr @self_test_args, align 4, !tbaa !13
  %41 = load ptr, ptr @libctx, align 8, !tbaa !11
  call void @OSSL_SELF_TEST_set_callback(ptr noundef %41, ptr noundef nonnull @self_test_on_demand, ptr noundef nonnull @self_test_args) #6
  %42 = call i32 @OSSL_PROVIDER_self_test(ptr noundef %7) #6
  %43 = icmp ne i32 %42, 0
  %44 = zext i1 %43 to i32
  %45 = call i32 @test_true(ptr noundef nonnull @.str.33, i32 noundef 183, ptr noundef nonnull @.str.46, i32 noundef %44) #6
  %.not21 = icmp eq i32 %45, 0
  br i1 %.not21, label %64, label %46

46:                                               ; preds = %39
  store i32 0, ptr @self_test_args, align 4, !tbaa !13
  %47 = load ptr, ptr @libctx, align 8, !tbaa !11
  call void @OSSL_SELF_TEST_set_callback(ptr noundef %47, ptr noundef nonnull @self_test_on_demand_fail, ptr noundef nonnull @self_test_args) #6
  %48 = call i32 @OSSL_PROVIDER_self_test(ptr noundef %7) #6
  %49 = icmp ne i32 %48, 0
  %50 = zext i1 %49 to i32
  %51 = call i32 @test_false(ptr noundef nonnull @.str.33, i32 noundef 189, ptr noundef nonnull @.str.46, i32 noundef %50) #6
  %.not22 = icmp eq i32 %51, 0
  br i1 %.not22, label %64, label %52

52:                                               ; preds = %46
  %53 = call i32 @OSSL_PROVIDER_get_params(ptr noundef %7, ptr noundef nonnull %2) #6
  %54 = icmp ne i32 %53, 0
  %55 = zext i1 %54 to i32
  %56 = call i32 @test_true(ptr noundef nonnull @.str.33, i32 noundef 191, ptr noundef nonnull @.str.36, i32 noundef %55) #6
  %.not23 = icmp eq i32 %56, 0
  br i1 %.not23, label %64, label %57

57:                                               ; preds = %52
  %58 = load i32, ptr %1, align 4, !tbaa !16
  %59 = call i32 @test_uint_eq(ptr noundef nonnull @.str.33, i32 noundef 192, ptr noundef nonnull @.str.35, ptr noundef nonnull @.str.43, i32 noundef %58, i32 noundef 0) #6
  %.not24 = icmp eq i32 %59, 0
  br i1 %.not24, label %64, label %60

60:                                               ; preds = %57
  %61 = load ptr, ptr @libctx, align 8, !tbaa !11
  %62 = call ptr @EVP_MD_fetch(ptr noundef %61, ptr noundef nonnull @.str.39, ptr noundef null) #6
  %63 = call i32 @test_ptr_null(ptr noundef nonnull @.str.33, i32 noundef 194, ptr noundef nonnull @.str.38, ptr noundef %62) #6
  %.not25 = icmp ne i32 %63, 0
  %spec.select = zext i1 %.not25 to i32
  br label %64

64:                                               ; preds = %60, %52, %57, %46, %39, %26, %30, %33, %36, %22, %11, %17, %9, %0
  %.012 = phi i32 [ 0, %57 ], [ 0, %52 ], [ 0, %46 ], [ 0, %39 ], [ 0, %36 ], [ 0, %33 ], [ 0, %30 ], [ 0, %26 ], [ 0, %22 ], [ 0, %17 ], [ 0, %11 ], [ 0, %9 ], [ 0, %0 ], [ %spec.select, %60 ]
  %.0 = phi ptr [ null, %57 ], [ null, %52 ], [ null, %46 ], [ null, %39 ], [ null, %36 ], [ null, %33 ], [ null, %30 ], [ null, %26 ], [ %24, %22 ], [ null, %17 ], [ null, %11 ], [ null, %9 ], [ null, %0 ], [ %62, %60 ]
  call void @EVP_MD_free(ptr noundef %.0) #6
  %65 = call i32 @OSSL_PROVIDER_unload(ptr noundef %7) #6
  call void @llvm.lifetime.end.p0(i64 8, ptr nonnull %3) #6
  call void @llvm.lifetime.end.p0(i64 80, ptr nonnull %2) #6
  call void @llvm.lifetime.end.p0(i64 4, ptr nonnull %1) #6
  ret i32 %.012
}